target datalayout = "e-m:e-p270:32:32-p271:32:32-p272:64:64-i64:64-i128:128-f80:128-n8:16:32:64-S128"
target triple = "x86_64-pc-linux-gnu"

%struct.FilterParams = type { i32, double, ptr, ptr, ptr }

; Function Attrs: nounwind uwtable
define internal void @blend_hardlight_32bit(ptr noundef %0, i64 noundef %1, ptr noundef %2, i64 noundef %3, ptr noundef %4, i64 noundef %5, i64 noundef %6, i64 noundef %7, ptr noundef %8, ptr noundef %9) #0 {
  %11 = alloca ptr, align 8
  %12 = alloca i64, align 8
  %13 = alloca ptr, align 8
  %14 = alloca i64, align 8
  %15 = alloca ptr, align 8
  %16 = alloca i64, align 8
  %17 = alloca i64, align 8
  %18 = alloca i64, align 8
  %19 = alloca ptr, align 8
  %20 = alloca ptr, align 8
  %21 = alloca ptr, align 8
  %22 = alloca ptr, align 8
  %23 = alloca ptr, align 8
  %24 = alloca float, align 4
  %25 = alloca i32, align 4
  %26 = alloca i32, align 4
  %27 = alloca i32, align 4
  store ptr %0, ptr %11, align 8, !tbaa !46
  store i64 %1, ptr %12, align 8, !tbaa !88
  store ptr %2, ptr %13, align 8, !tbaa !46
  store i64 %3, ptr %14, align 8, !tbaa !88
  store ptr %4, ptr %15, align 8, !tbaa !46
  store i64 %5, ptr %16, align 8, !tbaa !88
  store i64 %6, ptr %17, align 8, !tbaa !88
  store i64 %7, ptr %18, align 8, !tbaa !88
  store ptr %8, ptr %19, align 8, !tbaa !77
  store ptr %9, ptr %20, align 8, !tbaa !89
  call void @llvm.lifetime.start.p0(i64 8, ptr %21) #12
  %28 = load ptr, ptr %11, align 8, !tbaa !46
  store ptr %28, ptr %21, align 8, !tbaa !91
  call void @llvm.lifetime.start.p0(i64 8, ptr %22) #12
  %29 = load ptr, ptr %13, align 8, !tbaa !46
  store ptr %29, ptr %22, align 8, !tbaa !91
  call void @llvm.lifetime.start.p0(i64 8, ptr %23) #12
  %30 = load ptr, ptr %15, align 8, !tbaa !46
  store ptr %30, ptr %23, align 8, !tbaa !91
  call void @llvm.lifetime.start.p0(i64 4, ptr %24) #12
  %31 = load ptr, ptr %19, align 8, !tbaa !77
  %32 = getelementptr inbounds nuw %struct.FilterParams, ptr %31, i32 0, i32 1
  %33 = load double, ptr %32, align 8, !tbaa !82
  %34 = fptrunc nsz double %33 to float
  store float %34, ptr %24, align 4, !tbaa !99
  %35 = load i64, ptr %16, align 8, !tbaa !88
  %36 = udiv i64 %35, 4
  store i64 %36, ptr %16, align 8, !tbaa !88
  %37 = load i64, ptr %12, align 8, !tbaa !88
  %38 = udiv i64 %37, 4
  store i64 %38, ptr %12, align 8, !tbaa !88
  %39 = load i64, ptr %14, align 8, !tbaa !88
  %40 = udiv i64 %39, 4
  store i64 %40, ptr %14, align 8, !tbaa !88
  call void @llvm.lifetime.start.p0(i64 4, ptr %25) #12
  store i32 0, ptr %25, align 4, !tbaa !37
  br label %41

41:                                               ; preds = %130, %10
  %42 = load i32, ptr %25, align 4, !tbaa !37
  %43 = sext i32 %42 to i64
  %44 = load i64, ptr %18, align 8, !tbaa !88
  %45 = icmp slt i64 %43, %44
  br i1 %45, label %47, label %46

46:                                               ; preds = %41
  store i32 2, ptr %26, align 4
  call void @llvm.lifetime.end.p0(i64 4, ptr %25) #12
  br label %133

47:                                               ; preds = %41
  call void @llvm.lifetime.start.p0(i64 4, ptr %27) #12
  store i32 0, ptr %27, align 4, !tbaa !37
  br label %48

48:                                               ; preds = %117, %47
  %49 = load i32, ptr %27, align 4, !tbaa !37
  %50 = sext i32 %49 to i64
  %51 = load i64, ptr %17, align 8, !tbaa !88
  %52 = icmp slt i64 %50, %51
  br i1 %52, label %54, label %53

53:                                               ; preds = %48
  store i32 5, ptr %26, align 4
  call void @llvm.lifetime.end.p0(i64 4, ptr %27) #12
  br label %120

54:                                               ; preds = %48
  %55 = load ptr, ptr %21, align 8, !tbaa !91
  %56 = load i32, ptr %27, align 4, !tbaa !37
  %57 = sext i32 %56 to i64
  %58 = getelementptr inbounds float, ptr %55, i64 %57
  %59 = load float, ptr %58, align 4, !tbaa !99
  %60 = fpext nsz float %59 to double
  %61 = load ptr, ptr %22, align 8, !tbaa !91
  %62 = load i32, ptr %27, align 4, !tbaa !37
  %63 = sext i32 %62 to i64
  %64 = getelementptr inbounds float, ptr %61, i64 %63
  %65 = load float, ptr %64, align 4, !tbaa !99
  %66 = fcmp nsz olt float %65, 5.000000e-01
  br i1 %66, label %67, label %82

67:                                               ; preds = %54
  %68 = load ptr, ptr %22, align 8, !tbaa !91
  %69 = load i32, ptr %27, align 4, !tbaa !37
  %70 = sext i32 %69 to i64
  %71 = getelementptr inbounds float, ptr %68, i64 %70
  %72 = load float, ptr %71, align 4, !tbaa !99
  %73 = load ptr, ptr %21, align 8, !tbaa !91
  %74 = load i32, ptr %27, align 4, !tbaa !37
  %75 = sext i32 %74 to i64
  %76 = getelementptr inbounds float, ptr %73, i64 %75
  %77 = load float, ptr %76, align 4, !tbaa !99
  %78 = fmul nsz float %72, %77
  %79 = fpext nsz float %78 to double
  %80 = fdiv nsz double %79, 1.000000e+00
  %81 = fmul nsz double 2.000000e+00, %80
  br label %100

82:                                               ; preds = %54
  %83 = load ptr, ptr %22, align 8, !tbaa !91
  %84 = load i32, ptr %27, align 4, !tbaa !37
  %85 = sext i32 %84 to i64
  %86 = getelementptr inbounds float, ptr %83, i64 %85
  %87 = load float, ptr %86, align 4, !tbaa !99
  %88 = fpext nsz float %87 to double
  %89 = fsub nsz double 1.000000e+00, %88
  %90 = load ptr, ptr %21, align 8, !tbaa !91
  %91 = load i32, ptr %27, align 4, !tbaa !37
  %92 = sext i32 %91 to i64
  %93 = getelementptr inbounds float, ptr %90, i64 %92
  %94 = load float, ptr %93, align 4, !tbaa !99
  %95 = fpext nsz float %94 to double
  %96 = fsub nsz double 1.000000e+00, %95
  %97 = fmul nsz double %89, %96
  %98 = fdiv nsz double %97, 1.000000e+00
  %99 = call nsz double @llvm.fmuladd.f64(double -2.000000e+00, double %98, double 1.000000e+00)
  br label %100

100:                                              ; preds = %82, %67
  %101 = phi nsz double [ %81, %67 ], [ %99, %82 ]
  %102 = load ptr, ptr %21, align 8, !tbaa !91
  %103 = load i32, ptr %27, align 4, !tbaa !37
  %104 = sext i32 %103 to i64
  %105 = getelementptr inbounds float, ptr %102, i64 %104
  %106 = load float, ptr %105, align 4, !tbaa !99
  %107 = fpext nsz float %106 to double
  %108 = fsub nsz double %101, %107
  %109 = load float, ptr %24, align 4, !tbaa !99
  %110 = fpext nsz float %109 to double
  %111 = call nsz double @llvm.fmuladd.f64(double %108, double %110, double %60)
  %112 = fptrunc nsz double %111 to float
  %113 = load ptr, ptr %23, align 8, !tbaa !91
  %114 = load i32, ptr %27, align 4, !tbaa !37
  %115 = sext i32 %114 to i64
  %116 = getelementptr inbounds float, ptr %113, i64 %115
  store float %112, ptr %116, align 4, !tbaa !99
  br label %117

117:                                              ; preds = %100
  %118 = load i32, ptr %27, align 4, !tbaa !37
  %119 = add nsw i32 %118, 1
  store i32 %119, ptr %27, align 4, !tbaa !37
  br label %48, !llvm.loop !612

120:                                              ; preds = %53
  %121 = load i64, ptr %16, align 8, !tbaa !88
  %122 = load ptr, ptr %23, align 8, !tbaa !91
  %123 = getelementptr inbounds float, ptr %122, i64 %121
  store ptr %123, ptr %23, align 8, !tbaa !91
  %124 = load i64, ptr %12, align 8, !tbaa !88
  %125 = load ptr, ptr %21, align 8, !tbaa !91
  %126 = getelementptr inbounds float, ptr %125, i64 %124
  store ptr %126, ptr %21, align 8, !tbaa !91
  %127 = load i64, ptr %14, align 8, !tbaa !88
  %128 = load ptr, ptr %22, align 8, !tbaa !91
  %129 = getelementptr inbounds float, ptr %128, i64 %127
  store ptr %129, ptr %22, align 8, !tbaa !91
  br label %130

130:                                              ; preds = %120
  %131 = load i32, ptr %25, align 4, !tbaa !37
  %132 = add nsw i32 %131, 1
  store i32 %132, ptr %25, align 4, !tbaa !37
  br label %41, !llvm.loop !613

133:                                              ; preds = %46
  call void @llvm.lifetime.end.p0(i64 4, ptr %24) #12
  call void @llvm.lifetime.end.p0(i64 8, ptr %23) #12
  call void @llvm.lifetime.end.p0(i64 8, ptr %22) #12
  call void @llvm.lifetime.end.p0(i64 8, ptr %21) #12
  ret void
}