; Function Attrs: nofree norecurse nosync nounwind memory(argmem: readwrite) uwtable
define internal void @blend_hardlight_32bit(ptr noundef readonly captures(none) %0, i64 noundef %1, ptr noundef readonly captures(none) %2, i64 noundef %3, ptr noundef writeonly captures(none) %4, i64 noundef %5, i64 noundef %6, i64 noundef %7, ptr noundef readonly captures(none) %8, ptr readnone captures(none) %9) #6 {
  %11 = lshr i64 %5, 2
  %12 = lshr i64 %1, 2
  %13 = lshr i64 %3, 2
  %14 = icmp sgt i64 %7, 0
  br i1 %14, label %.preheader.lr.ph, label %._crit_edge46

.preheader.lr.ph:                                 ; preds = %10
  %15 = getelementptr inbounds nuw i8, ptr %8, i64 8
  %16 = load double, ptr %15, align 8, !tbaa !70
  %17 = fptrunc nsz double %16 to float
  %18 = icmp sgt i64 %6, 0
  %19 = fpext nsz float %17 to double
  br i1 %18, label %.preheader.us, label %._crit_edge46

.preheader.us:                                    ; preds = %.preheader.lr.ph, %._crit_edge.us
  %indvars.iv50 = phi i64 [ %indvars.iv.next51, %._crit_edge.us ], [ 0, %.preheader.lr.ph ]
  %.03644.us = phi ptr [ %43, %._crit_edge.us ], [ %4, %.preheader.lr.ph ]
  %.03743.us = phi ptr [ %45, %._crit_edge.us ], [ %2, %.preheader.lr.ph ]
  %.03842.us = phi ptr [ %44, %._crit_edge.us ], [ %0, %.preheader.lr.ph ]
  br label %20

20:                                               ; preds = %.preheader.us, %37
  %indvars.iv = phi i64 [ 0, %.preheader.us ], [ %indvars.iv.next, %37 ]
  %21 = getelementptr inbounds nuw float, ptr %.03842.us, i64 %indvars.iv
  %22 = load float, ptr %21, align 4, !tbaa !81
  %23 = fpext nsz float %22 to double
  %24 = getelementptr inbounds nuw float, ptr %.03743.us, i64 %indvars.iv
  %25 = load float, ptr %24, align 4, !tbaa !81
  %26 = fcmp nsz olt float %25, 5.000000e-01
  br i1 %26, label %33, label %27

27:                                               ; preds = %20
  %28 = fpext nsz float %25 to double
  %29 = fsub nsz double 1.000000e+00, %28
  %30 = fsub nsz double 1.000000e+00, %23
  %31 = fmul nsz double %30, %29
  %32 = tail call nsz double @llvm.fmuladd.f64(double %31, double -2.000000e+00, double 1.000000e+00)
  br label %37

33:                                               ; preds = %20
  %34 = fmul nsz float %22, %25
  %35 = fpext nsz float %34 to double
  %36 = fmul nsz double %35, 2.000000e+00
  br label %37

37:                                               ; preds = %33, %27
  %38 = phi nsz double [ %36, %33 ], [ %32, %27 ]
  %39 = fsub nsz double %38, %23
  %40 = tail call nsz double @llvm.fmuladd.f64(double %39, double %19, double %23)
  %41 = fptrunc nsz double %40 to float
  %42 = getelementptr inbounds nuw float, ptr %.03644.us, i64 %indvars.iv
  store float %41, ptr %42, align 4, !tbaa !81
  %indvars.iv.next = add nuw nsw i64 %indvars.iv, 1
  %exitcond.not = icmp eq i64 %indvars.iv.next, %6
  br i1 %exitcond.not, label %._crit_edge.us, label %20, !llvm.loop !592

._crit_edge.us:                                   ; preds = %37
  %43 = getelementptr inbounds nuw float, ptr %.03644.us, i64 %11
  %44 = getelementptr inbounds nuw float, ptr %.03842.us, i64 %12
  %45 = getelementptr inbounds nuw float, ptr %.03743.us, i64 %13
  %indvars.iv.next51 = add nuw nsw i64 %indvars.iv50, 1
  %exitcond53.not = icmp eq i64 %indvars.iv.next51, %7
  br i1 %exitcond53.not, label %._crit_edge46, label %.preheader.us, !llvm.loop !593

._crit_edge46:                                    ; preds = %._crit_edge.us, %.preheader.lr.ph, %10
  ret void
}